target datalayout = "e-m:e-p270:32:32-p271:32:32-p272:64:64-i64:64-i128:128-f80:128-n8:16:32:64-S128"
target triple = "x86_64-pc-linux-gnu"

; Function Attrs: null_pointer_is_valid sspstrong uwtable
define internal i32 @dissect_inap_T_bearerCap(i1 noundef zeroext %0, ptr noundef %1, i32 noundef %2, ptr noundef %3, ptr noundef %4, i32 noundef %5) #0 {
  %7 = alloca i32, align 4
  %8 = alloca i8, align 1
  %9 = alloca ptr, align 8
  %10 = alloca i32, align 4
  %11 = alloca ptr, align 8
  %12 = alloca ptr, align 8
  %13 = alloca i32, align 4
  %14 = alloca ptr, align 8
  %15 = alloca i32, align 4
  %16 = zext i1 %0 to i8
  store i8 %16, ptr %8, align 1
  store ptr %1, ptr %9, align 8
  store i32 %2, ptr %10, align 4
  store ptr %3, ptr %11, align 8
  store ptr %4, ptr %12, align 8
  store i32 %5, ptr %13, align 4
  call void @llvm.lifetime.start.p0(i64 8, ptr %14) #4
  %17 = load i8, ptr %8, align 1, !range !6, !noundef !7
  %18 = trunc i8 %17 to i1
  %19 = load ptr, ptr %11, align 8
  %20 = load ptr, ptr %12, align 8
  %21 = load ptr, ptr %9, align 8
  %22 = load i32, ptr %10, align 4
  %23 = load i32, ptr %13, align 4
  %24 = call i32 @dissect_ber_octet_string(i1 noundef zeroext %18, ptr noundef %19, ptr noundef %20, ptr noundef %21, i32 noundef %22, i32 noundef %23, ptr noundef %14)
  store i32 %24, ptr %10, align 4
  %25 = load ptr, ptr %14, align 8
  %26 = icmp ne ptr %25, null
  br i1 %26, label %29, label %27

27:                                               ; preds = %6
  %28 = load i32, ptr %10, align 4
  store i32 %28, ptr %7, align 4
  store i32 1, ptr %15, align 4
  br label %35

29:                                               ; preds = %6
  %30 = load ptr, ptr %14, align 8
  %31 = load ptr, ptr %14, align 8
  %32 = call i32 @tvb_reported_length_remaining(ptr noundef %31, i32 noundef 0)
  %33 = load ptr, ptr %12, align 8
  call void @dissect_q931_bearer_capability_ie(ptr noundef %30, i32 noundef 0, i32 noundef %32, ptr noundef %33)
  %34 = load i32, ptr %10, align 4
  store i32 %34, ptr %7, align 4
  store i32 1, ptr %15, align 4
  br label %35

35:                                               ; preds = %29, %27
  call void @llvm.lifetime.end.p0(i64 8, ptr %14) #4
  %36 = load i32, ptr %7, align 4
  ret i32 %36
}