; Function Attrs: null_pointer_is_valid sspstrong uwtable
define internal i32 @dissect_inap_T_bearerCap(i1 noundef zeroext %0, ptr noundef %1, i32 noundef %2, ptr noundef %3, ptr noundef %4, i32 noundef %5) #0 {
  %7 = alloca ptr, align 8
  call void @llvm.lifetime.start.p0(i64 8, ptr nonnull %7) #4
  %8 = call i32 @dissect_ber_octet_string(i1 noundef zeroext %0, ptr noundef %3, ptr noundef %4, ptr noundef %1, i32 noundef %2, i32 noundef %5, ptr noundef nonnull %7)
  %9 = load ptr, ptr %7, align 8
  %.not = icmp eq ptr %9, null
  br i1 %.not, label %12, label %10

10:                                               ; preds = %6
  %11 = call i32 @tvb_reported_length_remaining(ptr noundef nonnull %9, i32 noundef 0)
  call void @dissect_q931_bearer_capability_ie(ptr noundef nonnull %9, i32 noundef 0, i32 noundef %11, ptr noundef %4)
  br label %12

12:                                               ; preds = %6, %10
  call void @llvm.lifetime.end.p0(i64 8, ptr nonnull %7) #4
  ret i32 %8
}